target datalayout = "e-m:e-p270:32:32-p271:32:32-p272:64:64-i64:64-i128:128-f80:128-n8:16:32:64-S128"
target triple = "x86_64-pc-linux-gnu"

@history_len = internal global i32 0, align 4
@history = internal global ptr null, align 8
@history_sensitive = internal global ptr null, align 8
@.str.9 = private unnamed_addr constant [2 x i8] c"w\00", align 1
@.str.10 = private unnamed_addr constant [4 x i8] c"%s\0A\00", align 1

; Function Attrs: nounwind uwtable
define dso_local i32 @linenoiseHistorySave(ptr noundef %0) #0 {
  %2 = alloca i32, align 4
  %3 = alloca ptr, align 8
  %4 = alloca i32, align 4
  %5 = alloca ptr, align 8
  %6 = alloca i32, align 4
  %7 = alloca i32, align 4
  store ptr %0, ptr %3, align 8, !tbaa !12
  call void @llvm.lifetime.start.p0(i64 4, ptr %4) #12
  %8 = call i32 @umask(i32 noundef 127) #12
  store i32 %8, ptr %4, align 4, !tbaa !4
  call void @llvm.lifetime.start.p0(i64 8, ptr %5) #12
  call void @llvm.lifetime.start.p0(i64 4, ptr %6) #12
  %9 = load ptr, ptr %3, align 8, !tbaa !12
  %10 = call noalias ptr @fopen(ptr noundef %9, ptr noundef @.str.9)
  store ptr %10, ptr %5, align 8, !tbaa !45
  %11 = load i32, ptr %4, align 4, !tbaa !4
  %12 = call i32 @umask(i32 noundef %11) #12
  %13 = load ptr, ptr %5, align 8, !tbaa !45
  %14 = icmp eq ptr %13, null
  br i1 %14, label %15, label %16

15:                                               ; preds = %1
  store i32 -1, ptr %2, align 4
  store i32 1, ptr %7, align 4
  br label %46

16:                                               ; preds = %1
  %17 = load ptr, ptr %5, align 8, !tbaa !45
  %18 = call i32 @fileno(ptr noundef %17) #12
  %19 = call i32 @fchmod(i32 noundef %18, i32 noundef 384) #12
  store i32 0, ptr %6, align 4, !tbaa !4
  br label %20

20:                                               ; preds = %40, %16
  %21 = load i32, ptr %6, align 4, !tbaa !4
  %22 = load i32, ptr @history_len, align 4, !tbaa !4
  %23 = icmp slt i32 %21, %22
  br i1 %23, label %24, label %43

24:                                               ; preds = %20
  %25 = load ptr, ptr @history_sensitive, align 8, !tbaa !55
  %26 = load i32, ptr %6, align 4, !tbaa !4
  %27 = sext i32 %26 to i64
  %28 = getelementptr inbounds i32, ptr %25, i64 %27
  %29 = load i32, ptr %28, align 4, !tbaa !4
  %30 = icmp ne i32 %29, 0
  br i1 %30, label %39, label %31

31:                                               ; preds = %24
  %32 = load ptr, ptr %5, align 8, !tbaa !45
  %33 = load ptr, ptr @history, align 8, !tbaa !20
  %34 = load i32, ptr %6, align 4, !tbaa !4
  %35 = sext i32 %34 to i64
  %36 = getelementptr inbounds ptr, ptr %33, i64 %35
  %37 = load ptr, ptr %36, align 8, !tbaa !12
  %38 = call i32 (ptr, ptr, ...) @fprintf(ptr noundef %32, ptr noundef @.str.10, ptr noundef %37) #12
  br label %39

39:                                               ; preds = %31, %24
  br label %40

40:                                               ; preds = %39
  %41 = load i32, ptr %6, align 4, !tbaa !4
  %42 = add nsw i32 %41, 1
  store i32 %42, ptr %6, align 4, !tbaa !4
  br label %20, !llvm.loop !58

43:                                               ; preds = %20
  %44 = load ptr, ptr %5, align 8, !tbaa !45
  %45 = call i32 @fclose(ptr noundef %44)
  store i32 0, ptr %2, align 4
  store i32 1, ptr %7, align 4
  br label %46

46:                                               ; preds = %43, %15
  call void @llvm.lifetime.end.p0(i64 4, ptr %6) #12
  call void @llvm.lifetime.end.p0(i64 8, ptr %5) #12
  call void @llvm.lifetime.end.p0(i64 4, ptr %4) #12
  %47 = load i32, ptr %2, align 4
  ret i32 %47
}