; Function Attrs: nounwind uwtable
define dso_local range(i32 -1, 1) i32 @linenoiseHistorySave(ptr noundef readonly captures(none) %0) local_unnamed_addr #10 {
  %2 = tail call i32 @umask(i32 noundef 127) #24
  %3 = tail call noalias ptr @fopen(ptr noundef %0, ptr noundef nonnull @.str.9)
  %4 = tail call i32 @umask(i32 noundef %2) #24
  %5 = icmp eq ptr %3, null
  br i1 %5, label %26, label %6

6:                                                ; preds = %1
  %7 = tail call i32 @fileno(ptr noundef nonnull %3) #24
  %8 = tail call i32 @fchmod(i32 noundef %7, i32 noundef 384) #24
  %9 = load i32, ptr @history_len, align 4, !tbaa !4
  %10 = icmp sgt i32 %9, 0
  br i1 %10, label %.lr.ph.preheader, label %._crit_edge

.lr.ph.preheader:                                 ; preds = %6
  %.pre14 = load ptr, ptr @history_sensitive, align 8, !tbaa !64
  br label %.lr.ph

.lr.ph:                                           ; preds = %.lr.ph.preheader, %20
  %11 = phi i32 [ %9, %.lr.ph.preheader ], [ %21, %20 ]
  %12 = phi ptr [ %.pre14, %.lr.ph.preheader ], [ %22, %20 ]
  %indvars.iv = phi i64 [ 0, %.lr.ph.preheader ], [ %indvars.iv.next, %20 ]
  %13 = getelementptr inbounds nuw i32, ptr %12, i64 %indvars.iv
  %14 = load i32, ptr %13, align 4, !tbaa !4
  %.not = icmp eq i32 %14, 0
  br i1 %.not, label %15, label %20

15:                                               ; preds = %.lr.ph
  %16 = load ptr, ptr @history, align 8, !tbaa !40
  %17 = getelementptr inbounds nuw ptr, ptr %16, i64 %indvars.iv
  %18 = load ptr, ptr %17, align 8, !tbaa !15
  %19 = tail call i32 (ptr, ptr, ...) @fprintf(ptr noundef nonnull %3, ptr noundef nonnull @.str.10, ptr noundef %18) #24
  %.pre = load ptr, ptr @history_sensitive, align 8, !tbaa !64
  %.pre15 = load i32, ptr @history_len, align 4, !tbaa !4
  br label %20

20:                                               ; preds = %.lr.ph, %15
  %21 = phi i32 [ %11, %.lr.ph ], [ %.pre15, %15 ]
  %22 = phi ptr [ %12, %.lr.ph ], [ %.pre, %15 ]
  %indvars.iv.next = add nuw nsw i64 %indvars.iv, 1
  %23 = sext i32 %21 to i64
  %24 = icmp slt i64 %indvars.iv.next, %23
  br i1 %24, label %.lr.ph, label %._crit_edge, !llvm.loop !67

._crit_edge:                                      ; preds = %20, %6
  %25 = tail call i32 @fclose(ptr noundef nonnull %3)
  br label %26

26:                                               ; preds = %1, %._crit_edge
  %.010 = phi i32 [ 0, %._crit_edge ], [ -1, %1 ]
  ret i32 %.010
}